; Function Attrs: mustprogress uwtable
define internal void @_ZL24pj_molodensky_forward_4dR8PJ_COORDP8PJconsts(ptr noundef nonnull align 8 captures(none) dereferenceable(32) %0, ptr noundef %1) #0 {
  %3 = alloca %union.PJ_COORD, align 8
  %4 = alloca %struct.PJ_LPZ, align 8
  call void @llvm.lifetime.start.p0(i64 24, ptr nonnull %4)
  call void @llvm.memcpy.p0.p0.i64(ptr noundef nonnull align 8 dereferenceable(24) %4, ptr noundef nonnull align 8 dereferenceable(24) %0, i64 24, i1 false)
  %5 = getelementptr inbounds nuw i8, ptr %1, i64 88
  %6 = load ptr, ptr %5, align 8, !tbaa !40, !noalias !56
  %.sroa.0.0.copyload.i = load double, ptr %4, align 8, !tbaa !59, !noalias !56
  %.sroa.7.0..sroa_idx.i = getelementptr inbounds nuw i8, ptr %4, i64 8
  %.sroa.7.0.copyload.i = load double, ptr %.sroa.7.0..sroa_idx.i, align 8, !tbaa !59, !noalias !56
  %.sroa.9.0..sroa_idx.i = getelementptr inbounds nuw i8, ptr %4, i64 16
  %.sroa.9.0.copyload.i = load double, ptr %.sroa.9.0..sroa_idx.i, align 8, !tbaa !59, !noalias !56
  %7 = getelementptr inbounds nuw i8, ptr %6, i64 40
  %8 = load i32, ptr %7, align 8, !tbaa !55, !noalias !56
  %.not.i = icmp eq i32 %8, 0
  br i1 %.not.i, label %10, label %9

9:                                                ; preds = %2
  call fastcc void @_ZL20calc_abridged_params6PJ_LPZP8PJconsts(ptr dead_on_unwind noalias writable align 8 %4, ptr noundef nonnull byval(%struct.PJ_LPZ) align 8 %0, ptr noundef nonnull %1)
  br label %11

10:                                               ; preds = %2
  call fastcc void @_ZL20calc_standard_params6PJ_LPZP8PJconsts(ptr dead_on_unwind noalias writable align 8 %4, ptr noundef nonnull byval(%struct.PJ_LPZ) align 8 %0, ptr noundef nonnull %1)
  br label %11

11:                                               ; preds = %10, %9
  %12 = load double, ptr %4, align 8, !tbaa !60, !noalias !56
  %13 = fcmp oeq double %12, 0x7FF0000000000000
  br i1 %13, label %14, label %16

14:                                               ; preds = %11
  %15 = tail call i32 @proj_errno_set(ptr noundef nonnull %1, i32 noundef 2050), !noalias !56
  call void @llvm.lifetime.start.p0(i64 32, ptr nonnull %3) #9, !noalias !56
  call void @_Z16proj_coord_errorv(ptr dead_on_unwind nonnull writable sret(%union.PJ_COORD) align 8 %3), !noalias !56
  %.sroa.0.0.copyload3 = load double, ptr %3, align 8, !tbaa !59
  %.sroa.5.0..sroa_idx4 = getelementptr inbounds nuw i8, ptr %3, i64 8
  %.sroa.5.0.copyload5 = load double, ptr %.sroa.5.0..sroa_idx4, align 8, !tbaa !59
  %.sroa.6.0..sroa_idx6 = getelementptr inbounds nuw i8, ptr %3, i64 16
  %.sroa.6.0.copyload7 = load double, ptr %.sroa.6.0..sroa_idx6, align 8, !tbaa !59
  call void @llvm.lifetime.end.p0(i64 32, ptr nonnull %3) #9, !noalias !56
  br label %_ZL24pj_molodensky_forward_3d6PJ_LPZP8PJconsts.exit

16:                                               ; preds = %11
  %17 = load double, ptr %.sroa.7.0..sroa_idx.i, align 8, !tbaa !62, !noalias !56
  %18 = fadd double %.sroa.7.0.copyload.i, %17
  %19 = fadd double %.sroa.0.0.copyload.i, %12
  %20 = load double, ptr %.sroa.9.0..sroa_idx.i, align 8, !tbaa !63, !noalias !56
  %21 = fadd double %.sroa.9.0.copyload.i, %20
  br label %_ZL24pj_molodensky_forward_3d6PJ_LPZP8PJconsts.exit

_ZL24pj_molodensky_forward_3d6PJ_LPZP8PJconsts.exit: ; preds = %14, %16
  %.sroa.6.0 = phi double [ %.sroa.6.0.copyload7, %14 ], [ %21, %16 ]
  %.sroa.5.0 = phi double [ %.sroa.5.0.copyload5, %14 ], [ %18, %16 ]
  %.sroa.0.0 = phi double [ %.sroa.0.0.copyload3, %14 ], [ %19, %16 ]
  call void @llvm.lifetime.end.p0(i64 24, ptr nonnull %4)
  store double %.sroa.0.0, ptr %0, align 8, !tbaa !59
  %.sroa.5.0..sroa_idx = getelementptr inbounds nuw i8, ptr %0, i64 8
  store double %.sroa.5.0, ptr %.sroa.5.0..sroa_idx, align 8, !tbaa !59
  %.sroa.6.0..sroa_idx = getelementptr inbounds nuw i8, ptr %0, i64 16
  store double %.sroa.6.0, ptr %.sroa.6.0..sroa_idx, align 8, !tbaa !59
  ret void
}